target datalayout = "e-m:e-p270:32:32-p271:32:32-p272:64:64-i64:64-i128:128-f80:128-n8:16:32:64-S128"
target triple = "x86_64-pc-linux-gnu"

%"class.llvm::StringRef" = type { ptr, i64 }
%"class.llvm::ArrayRef" = type { ptr, i64 }
%"struct.llvm::support::detail::packed_endian_specific_integral" = type { %struct.anon }
%struct.anon = type { [4 x i8] }
%"class.llvm::ArrayRef.2" = type { ptr, i64 }

; Function Attrs: mustprogress nounwind uwtable
define linkonce_odr hidden noundef i32 @_ZN4llvm8byteswapIjvEET_S1_(i32 noundef %0) #0 comdat {
  %2 = alloca i32, align 4
  %3 = alloca i32, align 4
  store i32 %0, ptr %2, align 4
  %4 = load i32, ptr %2, align 4
  store i32 %4, ptr %3, align 4
  %5 = load i32, ptr %3, align 4
  %6 = call i32 @llvm.bswap.i32(i32 %5)
  ret i32 %6
}

; Function Attrs: mustprogress nounwind uwtable
define linkonce_odr hidden noundef i32 @_ZN4llvm3sys15getSwappedBytesEj(i32 noundef %0) #0 comdat {
  %2 = alloca i32, align 4
  store i32 %0, ptr %2, align 4
  %3 = load i32, ptr %2, align 4
  %4 = call noundef i32 @_ZN4llvm8byteswapIjvEET_S1_(i32 noundef %3) #5
  ret i32 %4
}

; Function Attrs: mustprogress nounwind uwtable
define linkonce_odr hidden void @_ZN4llvm3sys13swapByteOrderIjEEvRT_(ptr noundef nonnull align 4 dereferenceable(4) %0) #0 comdat {
  %2 = alloca ptr, align 8
  store ptr %0, ptr %2, align 8
  %3 = load ptr, ptr %2, align 8
  %4 = load i32, ptr %3, align 4
  %5 = call noundef i32 @_ZN4llvm3sys15getSwappedBytesEj(i32 noundef %4)
  %6 = load ptr, ptr %2, align 8
  store i32 %5, ptr %6, align 4
  ret void
}

; Function Attrs: mustprogress nounwind uwtable
define linkonce_odr hidden noundef i32 @_ZN4llvm7support6endian9byte_swapIjEET_S3_NS_10endiannessE(i32 noundef %0, i32 noundef %1) #0 comdat {
  %3 = alloca i32, align 4
  %4 = alloca i32, align 4
  store i32 %0, ptr %3, align 4
  store i32 %1, ptr %4, align 4
  %5 = load i32, ptr %4, align 4
  %6 = icmp ne i32 %5, 1
  br i1 %6, label %7, label %8

7:                                                ; preds = %2
  call void @_ZN4llvm3sys13swapByteOrderIjEEvRT_(ptr noundef nonnull align 4 dereferenceable(4) %3)
  br label %8

8:                                                ; preds = %7, %2
  %9 = load i32, ptr %3, align 4
  ret i32 %9
}

; Function Attrs: mustprogress nounwind uwtable
define linkonce_odr hidden void @_ZN4llvm8ArrayRefIcEC2EPKcm(ptr noundef nonnull align 8 dereferenceable(16) %0, ptr noundef %1, i64 noundef %2) unnamed_addr #0 comdat align 2 {
  %4 = alloca ptr, align 8
  %5 = alloca ptr, align 8
  %6 = alloca i64, align 8
  store ptr %0, ptr %4, align 8
  store ptr %1, ptr %5, align 8
  store i64 %2, ptr %6, align 8
  %7 = load ptr, ptr %4, align 8
  %8 = getelementptr inbounds nuw %"class.llvm::ArrayRef.2", ptr %7, i32 0, i32 0
  %9 = load ptr, ptr %5, align 8
  store ptr %9, ptr %8, align 8
  %10 = getelementptr inbounds nuw %"class.llvm::ArrayRef.2", ptr %7, i32 0, i32 1
  %11 = load i64, ptr %6, align 8
  store i64 %11, ptr %10, align 8
  ret void
}

; Function Attrs: mustprogress nounwind uwtable
define linkonce_odr hidden noundef i32 @_ZN4llvm7support6endian4readIjLm1EEET_PKvNS_10endiannessE(ptr noundef %0, i32 noundef %1) #0 comdat {
  %3 = alloca ptr, align 8
  %4 = alloca i32, align 4
  %5 = alloca i32, align 4
  store ptr %0, ptr %3, align 8
  store i32 %1, ptr %4, align 4
  %6 = load ptr, ptr %3, align 8
  call void @llvm.assume(i1 true) [ "align"(ptr %6, i64 1) ]
  call void @llvm.memcpy.p0.p0.i64(ptr align 4 %5, ptr align 1 %6, i64 4, i1 false)
  %7 = load i32, ptr %5, align 4
  %8 = load i32, ptr %4, align 4
  %9 = call noundef i32 @_ZN4llvm7support6endian9byte_swapIjEET_S3_NS_10endiannessE(i32 noundef %7, i32 noundef %8)
  ret i32 %9
}

; Function Attrs: mustprogress nounwind uwtable
define linkonce_odr hidden { ptr, i64 } @_ZNK4llvm8ArrayRefIcE5sliceEmm(ptr noundef nonnull align 8 dereferenceable(16) %0, i64 noundef %1, i64 noundef %2) #0 comdat align 2 {
  %4 = alloca %"class.llvm::ArrayRef.2", align 8
  %5 = alloca ptr, align 8
  %6 = alloca i64, align 8
  %7 = alloca i64, align 8
  store ptr %0, ptr %5, align 8
  store i64 %1, ptr %6, align 8
  store i64 %2, ptr %7, align 8
  %8 = load ptr, ptr %5, align 8
  %9 = call noundef ptr @_ZNK4llvm8ArrayRefIcE4dataEv(ptr noundef nonnull align 8 dereferenceable(16) %8)
  %10 = load i64, ptr %6, align 8
  %11 = getelementptr inbounds i8, ptr %9, i64 %10
  %12 = load i64, ptr %7, align 8
  call void @_ZN4llvm8ArrayRefIcEC2EPKcm(ptr noundef nonnull align 8 dereferenceable(16) %4, ptr noundef %11, i64 noundef %12)
  %13 = load { ptr, i64 }, ptr %4, align 8
  ret { ptr, i64 } %13
}

; Function Attrs: mustprogress nounwind uwtable
define linkonce_odr hidden noundef i32 @_ZN4llvm7support6endian4readIjLNS_10endiannessE1ELm1EEET_PKv(ptr noundef %0) #0 comdat {
  %2 = alloca ptr, align 8
  store ptr %0, ptr %2, align 8
  %3 = load ptr, ptr %2, align 8
  %4 = call noundef i32 @_ZN4llvm7support6endian4readIjLm1EEET_PKvNS_10endiannessE(ptr noundef %3, i32 noundef 1)
  ret i32 %4
}

; Function Attrs: mustprogress nounwind uwtable
define linkonce_odr hidden noundef ptr @_ZNK4llvm8ArrayRefIcE3endEv(ptr noundef nonnull align 8 dereferenceable(16) %0) #0 comdat align 2 {
  %2 = alloca ptr, align 8
  store ptr %0, ptr %2, align 8
  %3 = load ptr, ptr %2, align 8
  %4 = getelementptr inbounds nuw %"class.llvm::ArrayRef.2", ptr %3, i32 0, i32 0
  %5 = load ptr, ptr %4, align 8
  %6 = getelementptr inbounds nuw %"class.llvm::ArrayRef.2", ptr %3, i32 0, i32 1
  %7 = load i64, ptr %6, align 8
  %8 = getelementptr inbounds i8, ptr %5, i64 %7
  ret ptr %8
}

; Function Attrs: mustprogress nounwind uwtable
define linkonce_odr hidden noundef ptr @_ZNK4llvm8ArrayRefIcE5beginEv(ptr noundef nonnull align 8 dereferenceable(16) %0) #0 comdat align 2 {
  %2 = alloca ptr, align 8
  store ptr %0, ptr %2, align 8
  %3 = load ptr, ptr %2, align 8
  %4 = getelementptr inbounds nuw %"class.llvm::ArrayRef.2", ptr %3, i32 0, i32 0
  %5 = load ptr, ptr %4, align 8
  ret ptr %5
}

; Function Attrs: mustprogress nounwind uwtable
define linkonce_odr hidden { ptr, i64 } @_ZNK4llvm8ArrayRefIcE5sliceEm(ptr noundef nonnull align 8 dereferenceable(16) %0, i64 noundef %1) #0 comdat align 2 {
  %3 = alloca %"class.llvm::ArrayRef.2", align 8
  %4 = alloca ptr, align 8
  %5 = alloca i64, align 8
  store ptr %0, ptr %4, align 8
  store i64 %1, ptr %5, align 8
  %6 = load ptr, ptr %4, align 8
  %7 = load i64, ptr %5, align 8
  %8 = call noundef i64 @_ZNK4llvm8ArrayRefIcE4sizeEv(ptr noundef nonnull align 8 dereferenceable(16) %6)
  %9 = load i64, ptr %5, align 8
  %10 = sub i64 %8, %9
  %11 = call { ptr, i64 } @_ZNK4llvm8ArrayRefIcE5sliceEmm(ptr noundef nonnull align 8 dereferenceable(16) %6, i64 noundef %7, i64 noundef %10)
  %12 = getelementptr inbounds nuw { ptr, i64 }, ptr %3, i32 0, i32 0
  %13 = extractvalue { ptr, i64 } %11, 0
  store ptr %13, ptr %12, align 8
  %14 = getelementptr inbounds nuw { ptr, i64 }, ptr %3, i32 0, i32 1
  %15 = extractvalue { ptr, i64 } %11, 1
  store i64 %15, ptr %14, align 8
  %16 = load { ptr, i64 }, ptr %3, align 8
  ret { ptr, i64 } %16
}

; Function Attrs: mustprogress nounwind uwtable
define linkonce_odr hidden noundef i64 @_ZNK4llvm8ArrayRefINS_7support6detail31packed_endian_specific_integralIjLNS_10endiannessE1ELm1ELm1EEEE4sizeEv(ptr noundef nonnull align 8 dereferenceable(16) %0) #0 comdat align 2 {
  %2 = alloca ptr, align 8
  store ptr %0, ptr %2, align 8
  %3 = load ptr, ptr %2, align 8
  %4 = getelementptr inbounds nuw %"class.llvm::ArrayRef", ptr %3, i32 0, i32 1
  %5 = load i64, ptr %4, align 8
  ret i64 %5
}

; Function Attrs: mustprogress nounwind uwtable
define linkonce_odr hidden noundef i32 @_ZNK4llvm7support6detail31packed_endian_specific_integralIjLNS_10endiannessE1ELm1ELm1EEcvjEv(ptr noundef nonnull align 1 dereferenceable(4) %0) #0 comdat align 2 {
  %2 = alloca ptr, align 8
  store ptr %0, ptr %2, align 8
  %3 = load ptr, ptr %2, align 8
  %4 = getelementptr inbounds nuw %"struct.llvm::support::detail::packed_endian_specific_integral", ptr %3, i32 0, i32 0
  %5 = getelementptr inbounds nuw %struct.anon, ptr %4, i32 0, i32 0
  %6 = getelementptr inbounds [4 x i8], ptr %5, i64 0, i64 0
  %7 = call noundef i32 @_ZN4llvm7support6endian4readIjLNS_10endiannessE1ELm1EEET_PKv(ptr noundef %6)
  ret i32 %7
}

; Function Attrs: mustprogress nounwind uwtable
define linkonce_odr hidden noundef ptr @_ZNK4llvm8ArrayRefINS_7support6detail31packed_endian_specific_integralIjLNS_10endiannessE1ELm1ELm1EEEE3endEv(ptr noundef nonnull align 8 dereferenceable(16) %0) #0 comdat align 2 {
  %2 = alloca ptr, align 8
  store ptr %0, ptr %2, align 8
  %3 = load ptr, ptr %2, align 8
  %4 = getelementptr inbounds nuw %"class.llvm::ArrayRef", ptr %3, i32 0, i32 0
  %5 = load ptr, ptr %4, align 8
  %6 = getelementptr inbounds nuw %"class.llvm::ArrayRef", ptr %3, i32 0, i32 1
  %7 = load i64, ptr %6, align 8
  %8 = getelementptr inbounds %"struct.llvm::support::detail::packed_endian_specific_integral", ptr %5, i64 %7
  ret ptr %8
}

; Function Attrs: mustprogress nounwind uwtable
define linkonce_odr hidden noundef ptr @_ZNK4llvm8ArrayRefINS_7support6detail31packed_endian_specific_integralIjLNS_10endiannessE1ELm1ELm1EEEE5beginEv(ptr noundef nonnull align 8 dereferenceable(16) %0) #0 comdat align 2 {
  %2 = alloca ptr, align 8
  store ptr %0, ptr %2, align 8
  %3 = load ptr, ptr %2, align 8
  %4 = getelementptr inbounds nuw %"class.llvm::ArrayRef", ptr %3, i32 0, i32 0
  %5 = load ptr, ptr %4, align 8
  ret ptr %5
}

; Function Attrs: mustprogress nounwind uwtable
define linkonce_odr hidden void @_ZN4llvm8ArrayRefINS_7support6detail31packed_endian_specific_integralIjLNS_10endiannessE1ELm1ELm1EEEEC2EPKS5_m(ptr noundef nonnull align 8 dereferenceable(16) %0, ptr noundef %1, i64 noundef %2) unnamed_addr #0 comdat align 2 {
  %4 = alloca ptr, align 8
  %5 = alloca ptr, align 8
  %6 = alloca i64, align 8
  store ptr %0, ptr %4, align 8
  store ptr %1, ptr %5, align 8
  store i64 %2, ptr %6, align 8
  %7 = load ptr, ptr %4, align 8
  %8 = getelementptr inbounds nuw %"class.llvm::ArrayRef", ptr %7, i32 0, i32 0
  %9 = load ptr, ptr %5, align 8
  store ptr %9, ptr %8, align 8
  %10 = getelementptr inbounds nuw %"class.llvm::ArrayRef", ptr %7, i32 0, i32 1
  %11 = load i64, ptr %6, align 8
  store i64 %11, ptr %10, align 8
  ret void
}

; Function Attrs: mustprogress nounwind uwtable
define linkonce_odr hidden noundef i64 @_ZNK4llvm8ArrayRefIcE4sizeEv(ptr noundef nonnull align 8 dereferenceable(16) %0) #0 comdat align 2 {
  %2 = alloca ptr, align 8
  store ptr %0, ptr %2, align 8
  %3 = load ptr, ptr %2, align 8
  %4 = getelementptr inbounds nuw %"class.llvm::ArrayRef.2", ptr %3, i32 0, i32 1
  %5 = load i64, ptr %4, align 8
  ret i64 %5
}

; Function Attrs: mustprogress nounwind uwtable
define linkonce_odr hidden noundef ptr @_ZNK4llvm8ArrayRefIcE4dataEv(ptr noundef nonnull align 8 dereferenceable(16) %0) #0 comdat align 2 {
  %2 = alloca ptr, align 8
  store ptr %0, ptr %2, align 8
  %3 = load ptr, ptr %2, align 8
  %4 = getelementptr inbounds nuw %"class.llvm::ArrayRef.2", ptr %3, i32 0, i32 0
  %5 = load ptr, ptr %4, align 8
  ret ptr %5
}

; Function Attrs: mustprogress nounwind uwtable
define linkonce_odr hidden void @_ZN4llvm8ArrayRefIcEC2EPKcS3_(ptr noundef nonnull align 8 dereferenceable(16) %0, ptr noundef %1, ptr noundef %2) unnamed_addr #0 comdat align 2 {
  %4 = alloca ptr, align 8
  %5 = alloca ptr, align 8
  %6 = alloca ptr, align 8
  store ptr %0, ptr %4, align 8
  store ptr %1, ptr %5, align 8
  store ptr %2, ptr %6, align 8
  %7 = load ptr, ptr %4, align 8
  %8 = getelementptr inbounds nuw %"class.llvm::ArrayRef.2", ptr %7, i32 0, i32 0
  %9 = load ptr, ptr %5, align 8
  store ptr %9, ptr %8, align 8
  %10 = getelementptr inbounds nuw %"class.llvm::ArrayRef.2", ptr %7, i32 0, i32 1
  %11 = load ptr, ptr %6, align 8
  %12 = load ptr, ptr %5, align 8
  %13 = ptrtoint ptr %11 to i64
  %14 = ptrtoint ptr %12 to i64
  %15 = sub i64 %13, %14
  store i64 %15, ptr %10, align 8
  ret void
}

; Function Attrs: mustprogress nounwind uwtable
define linkonce_odr hidden noundef ptr @_ZNK4llvm9StringRef3endEv(ptr noundef nonnull align 8 dereferenceable(16) %0) #0 comdat align 2 {
  %2 = alloca ptr, align 8
  store ptr %0, ptr %2, align 8
  %3 = load ptr, ptr %2, align 8
  %4 = getelementptr inbounds nuw %"class.llvm::StringRef", ptr %3, i32 0, i32 0
  %5 = load ptr, ptr %4, align 8
  %6 = getelementptr inbounds nuw %"class.llvm::StringRef", ptr %3, i32 0, i32 1
  %7 = load i64, ptr %6, align 8
  %8 = getelementptr inbounds i8, ptr %5, i64 %7
  ret ptr %8
}

; Function Attrs: mustprogress nounwind uwtable
define linkonce_odr hidden noundef ptr @_ZNK4llvm9StringRef5beginEv(ptr noundef nonnull align 8 dereferenceable(16) %0) #0 comdat align 2 {
  %2 = alloca ptr, align 8
  store ptr %0, ptr %2, align 8
  %3 = load ptr, ptr %2, align 8
  %4 = getelementptr inbounds nuw %"class.llvm::StringRef", ptr %3, i32 0, i32 0
  %5 = load ptr, ptr %4, align 8
  ret ptr %5
}

; Function Attrs: mustprogress nounwind uwtable
define dso_local noundef i32 @_ZN4llvm3pdb12hashStringV2ENS_9StringRefE(ptr %0, i64 %1) #0 {
  %3 = alloca %"class.llvm::StringRef", align 8
  %4 = alloca i32, align 4
  %5 = alloca %"class.llvm::ArrayRef.2", align 8
  %6 = alloca %"class.llvm::ArrayRef", align 8
  %7 = alloca ptr, align 8
  %8 = alloca ptr, align 8
  %9 = alloca ptr, align 8
  %10 = alloca %"struct.llvm::support::detail::packed_endian_specific_integral", align 1
  %11 = alloca %"class.llvm::ArrayRef.2", align 8
  %12 = alloca ptr, align 8
  %13 = alloca ptr, align 8
  %14 = alloca ptr, align 8
  %15 = alloca i8, align 1
  %16 = getelementptr inbounds nuw { ptr, i64 }, ptr %3, i32 0, i32 0
  store ptr %0, ptr %16, align 8
  %17 = getelementptr inbounds nuw { ptr, i64 }, ptr %3, i32 0, i32 1
  store i64 %1, ptr %17, align 8
  store i32 -1318018625, ptr %4, align 4
  %18 = call noundef ptr @_ZNK4llvm9StringRef5beginEv(ptr noundef nonnull align 8 dereferenceable(16) %3)
  %19 = call noundef ptr @_ZNK4llvm9StringRef3endEv(ptr noundef nonnull align 8 dereferenceable(16) %3)
  call void @_ZN4llvm8ArrayRefIcEC2EPKcS3_(ptr noundef nonnull align 8 dereferenceable(16) %5, ptr noundef %18, ptr noundef %19)
  %20 = call noundef ptr @_ZNK4llvm8ArrayRefIcE4dataEv(ptr noundef nonnull align 8 dereferenceable(16) %5)
  %21 = call noundef i64 @_ZNK4llvm8ArrayRefIcE4sizeEv(ptr noundef nonnull align 8 dereferenceable(16) %5)
  %22 = udiv i64 %21, 4
  call void @_ZN4llvm8ArrayRefINS_7support6detail31packed_endian_specific_integralIjLNS_10endiannessE1ELm1ELm1EEEEC2EPKS5_m(ptr noundef nonnull align 8 dereferenceable(16) %6, ptr noundef %20, i64 noundef %22)
  store ptr %6, ptr %7, align 8
  %23 = load ptr, ptr %7, align 8
  %24 = call noundef ptr @_ZNK4llvm8ArrayRefINS_7support6detail31packed_endian_specific_integralIjLNS_10endiannessE1ELm1ELm1EEEE5beginEv(ptr noundef nonnull align 8 dereferenceable(16) %23)
  store ptr %24, ptr %8, align 8
  %25 = load ptr, ptr %7, align 8
  %26 = call noundef ptr @_ZNK4llvm8ArrayRefINS_7support6detail31packed_endian_specific_integralIjLNS_10endiannessE1ELm1ELm1EEEE3endEv(ptr noundef nonnull align 8 dereferenceable(16) %25)
  store ptr %26, ptr %9, align 8
  br label %27

27:                                               ; preds = %44, %2
  %28 = load ptr, ptr %8, align 8
  %29 = load ptr, ptr %9, align 8
  %30 = icmp ne ptr %28, %29
  br i1 %30, label %31, label %47

31:                                               ; preds = %27
  %32 = load ptr, ptr %8, align 8
  call void @llvm.memcpy.p0.p0.i64(ptr align 1 %10, ptr align 1 %32, i64 4, i1 false)
  %33 = call noundef i32 @_ZNK4llvm7support6detail31packed_endian_specific_integralIjLNS_10endiannessE1ELm1ELm1EEcvjEv(ptr noundef nonnull align 1 dereferenceable(4) %10)
  %34 = load i32, ptr %4, align 4
  %35 = add i32 %34, %33
  store i32 %35, ptr %4, align 4
  %36 = load i32, ptr %4, align 4
  %37 = shl i32 %36, 10
  %38 = load i32, ptr %4, align 4
  %39 = add i32 %38, %37
  store i32 %39, ptr %4, align 4
  %40 = load i32, ptr %4, align 4
  %41 = lshr i32 %40, 6
  %42 = load i32, ptr %4, align 4
  %43 = xor i32 %42, %41
  store i32 %43, ptr %4, align 4
  br label %44

44:                                               ; preds = %31
  %45 = load ptr, ptr %8, align 8
  %46 = getelementptr inbounds %"struct.llvm::support::detail::packed_endian_specific_integral", ptr %45, i32 1
  store ptr %46, ptr %8, align 8
  br label %27

47:                                               ; preds = %27
  %48 = call noundef i64 @_ZNK4llvm8ArrayRefINS_7support6detail31packed_endian_specific_integralIjLNS_10endiannessE1ELm1ELm1EEEE4sizeEv(ptr noundef nonnull align 8 dereferenceable(16) %6)
  %49 = mul i64 %48, 4
  %50 = call { ptr, i64 } @_ZNK4llvm8ArrayRefIcE5sliceEm(ptr noundef nonnull align 8 dereferenceable(16) %5, i64 noundef %49)
  %51 = getelementptr inbounds nuw { ptr, i64 }, ptr %11, i32 0, i32 0
  %52 = extractvalue { ptr, i64 } %50, 0
  store ptr %52, ptr %51, align 8
  %53 = getelementptr inbounds nuw { ptr, i64 }, ptr %11, i32 0, i32 1
  %54 = extractvalue { ptr, i64 } %50, 1
  store i64 %54, ptr %53, align 8
  call void @llvm.memcpy.p0.p0.i64(ptr align 8 %5, ptr align 8 %11, i64 16, i1 false)
  store ptr %5, ptr %12, align 8
  %55 = load ptr, ptr %12, align 8
  %56 = call noundef ptr @_ZNK4llvm8ArrayRefIcE5beginEv(ptr noundef nonnull align 8 dereferenceable(16) %55)
  store ptr %56, ptr %13, align 8
  %57 = load ptr, ptr %12, align 8
  %58 = call noundef ptr @_ZNK4llvm8ArrayRefIcE3endEv(ptr noundef nonnull align 8 dereferenceable(16) %57)
  store ptr %58, ptr %14, align 8
  br label %59

59:                                               ; preds = %78, %47
  %60 = load ptr, ptr %13, align 8
  %61 = load ptr, ptr %14, align 8
  %62 = icmp ne ptr %60, %61
  br i1 %62, label %63, label %81

63:                                               ; preds = %59
  %64 = load ptr, ptr %13, align 8
  %65 = load i8, ptr %64, align 1
  store i8 %65, ptr %15, align 1
  %66 = load i8, ptr %15, align 1
  %67 = zext i8 %66 to i32
  %68 = load i32, ptr %4, align 4
  %69 = add i32 %68, %67
  store i32 %69, ptr %4, align 4
  %70 = load i32, ptr %4, align 4
  %71 = shl i32 %70, 10
  %72 = load i32, ptr %4, align 4
  %73 = add i32 %72, %71
  store i32 %73, ptr %4, align 4
  %74 = load i32, ptr %4, align 4
  %75 = lshr i32 %74, 6
  %76 = load i32, ptr %4, align 4
  %77 = xor i32 %76, %75
  store i32 %77, ptr %4, align 4
  br label %78

78:                                               ; preds = %63
  %79 = load ptr, ptr %13, align 8
  %80 = getelementptr inbounds i8, ptr %79, i32 1
  store ptr %80, ptr %13, align 8
  br label %59

81:                                               ; preds = %59
  %82 = load i32, ptr %4, align 4
  %83 = mul i32 %82, 1664525
  %84 = add i32 %83, 1013904223
  ret i32 %84
}