; Function Attrs: mustprogress nofree norecurse nosync nounwind willreturn memory(argmem: read) uwtable
define dso_local noundef i32 @_ZN4llvm3pdb12hashStringV2ENS_9StringRefE(ptr readonly %0, i64 %1) local_unnamed_addr #1 {
  %3 = lshr i64 %1, 2
  %4 = getelementptr inbounds %"struct.llvm::support::detail::packed_endian_specific_integral", ptr %0, i64 %3
  %.not38 = icmp ult i64 %1, 4
  br i1 %.not38, label %._crit_edge, label %.lr.ph

.lr.ph:                                           ; preds = %2, %.lr.ph
  %.040 = phi i32 [ %9, %.lr.ph ], [ -1318018625, %2 ]
  %.02339 = phi ptr [ %10, %.lr.ph ], [ %0, %2 ]
  %5 = load i32, ptr %.02339, align 1
  %6 = add i32 %5, %.040
  %7 = mul i32 %6, 1025
  %8 = lshr i32 %7, 6
  %9 = xor i32 %8, %7
  %10 = getelementptr inbounds i8, ptr %.02339, i64 4
  %.not = icmp eq ptr %10, %4
  br i1 %.not, label %._crit_edge, label %.lr.ph

._crit_edge:                                      ; preds = %.lr.ph, %2
  %.0.lcssa = phi i32 [ -1318018625, %2 ], [ %9, %.lr.ph ]
  %11 = and i64 %1, -4
  %12 = and i64 %1, 3
  %13 = getelementptr inbounds i8, ptr %0, i64 %11
  %14 = getelementptr inbounds i8, ptr %13, i64 %12
  %.not2541 = icmp eq i64 %12, 0
  br i1 %.not2541, label %._crit_edge46, label %.lr.ph45

.lr.ph45:                                         ; preds = %._crit_edge, %.lr.ph45
  %.143 = phi i32 [ %20, %.lr.ph45 ], [ %.0.lcssa, %._crit_edge ]
  %.02442 = phi ptr [ %21, %.lr.ph45 ], [ %13, %._crit_edge ]
  %15 = load i8, ptr %.02442, align 1
  %16 = zext i8 %15 to i32
  %17 = add i32 %.143, %16
  %18 = mul i32 %17, 1025
  %19 = lshr i32 %18, 6
  %20 = xor i32 %19, %18
  %21 = getelementptr inbounds i8, ptr %.02442, i64 1
  %.not25 = icmp eq ptr %21, %14
  br i1 %.not25, label %._crit_edge46, label %.lr.ph45

._crit_edge46:                                    ; preds = %.lr.ph45, %._crit_edge
  %.1.lcssa = phi i32 [ %.0.lcssa, %._crit_edge ], [ %20, %.lr.ph45 ]
  %22 = mul i32 %.1.lcssa, 1664525
  %23 = add i32 %22, 1013904223
  ret i32 %23
}